; ModuleID = '55/583.c'
source_filename = "55/583.c"
target datalayout = "e-m:e-p270:32:32-p271:32:32-p272:64:64-i64:64-f80:128-n8:16:32:64-S128"
target triple = "x86_64-pc-linux-gnu"

@.str = private unnamed_addr constant [3 x i8] c"%d\00", align 1
@.str.1 = private unnamed_addr constant [3 x i8] c"%s\00", align 1
@.str.2 = private unnamed_addr constant [3 x i8] c"%c\00", align 1

; Function Attrs: noinline nounwind uwtable
define dso_local i32 @main() #0 {
  %1 = alloca i32, align 4
  %2 = alloca i32, align 4
  %3 = alloca i32, align 4
  %4 = alloca [100 x i8], align 16
  %5 = alloca i64, align 8
  %6 = alloca i64, align 8
  %7 = alloca i32, align 4
  %8 = alloca i32, align 4
  %9 = alloca i32, align 4
  %10 = alloca i32, align 4
  %11 = alloca [100 x i32], align 16
  %12 = alloca i8, align 1
  store i32 0, i32* %1, align 4
  %13 = call i32 (i8*, ...) @__isoc99_scanf(i8* getelementptr inbounds ([3 x i8], [3 x i8]* @.str, i64 0, i64 0), i32* %2)
  %14 = getelementptr inbounds [100 x i8], [100 x i8]* %4, i64 0, i64 0
  %15 = call i32 (i8*, ...) @__isoc99_scanf(i8* getelementptr inbounds ([3 x i8], [3 x i8]* @.str.1, i64 0, i64 0), i8* %14)
  %16 = call i32 (i8*, ...) @__isoc99_scanf(i8* getelementptr inbounds ([3 x i8], [3 x i8]* @.str, i64 0, i64 0), i32* %3)
  store i64 0, i64* %5, align 8
  %17 = getelementptr inbounds [100 x i8], [100 x i8]* %4, i64 0, i64 0
  %18 = call i64 @strlen(i8* %17) #4
  %19 = trunc i64 %18 to i32
  store i32 %19, i32* %10, align 4
  store i32 0, i32* %7, align 4
  br label %20

20:                                               ; preds = %99, %0
  %21 = load i32, i32* %7, align 4
  %22 = load i32, i32* %10, align 4
  %23 = icmp slt i32 %21, %22
  br i1 %23, label %24, label %102

24:                                               ; preds = %20
  %25 = load i32, i32* %7, align 4
  %26 = sext i32 %25 to i64
  %27 = getelementptr inbounds [100 x i8], [100 x i8]* %4, i64 0, i64 %26
  %28 = load i8, i8* %27, align 1
  %29 = sext i8 %28 to i32
  %30 = icmp sge i32 %29, 65
  br i1 %30, label %31, label %47

31:                                               ; preds = %24
  %32 = load i32, i32* %7, align 4
  %33 = sext i32 %32 to i64
  %34 = getelementptr inbounds [100 x i8], [100 x i8]* %4, i64 0, i64 %33
  %35 = load i8, i8* %34, align 1
  %36 = sext i8 %35 to i32
  %37 = icmp sle i32 %36, 90
  br i1 %37, label %38, label %47

38:                                               ; preds = %31
  %39 = load i32, i32* %7, align 4
  %40 = sext i32 %39 to i64
  %41 = getelementptr inbounds [100 x i8], [100 x i8]* %4, i64 0, i64 %40
  %42 = load i8, i8* %41, align 1
  %43 = sext i8 %42 to i32
  %44 = sub nsw i32 %43, 65
  %45 = add nsw i32 %44, 10
  %46 = sext i32 %45 to i64
  store i64 %46, i64* %6, align 8
  br label %79

47:                                               ; preds = %31, %24
  %48 = load i32, i32* %7, align 4
  %49 = sext i32 %48 to i64
  %50 = getelementptr inbounds [100 x i8], [100 x i8]* %4, i64 0, i64 %49
  %51 = load i8, i8* %50, align 1
  %52 = sext i8 %51 to i32
  %53 = icmp sge i32 %52, 97
  br i1 %53, label %54, label %70

54:                                               ; preds = %47
  %55 = load i32, i32* %7, align 4
  %56 = sext i32 %55 to i64
  %57 = getelementptr inbounds [100 x i8], [100 x i8]* %4, i64 0, i64 %56
  %58 = load i8, i8* %57, align 1
  %59 = sext i8 %58 to i32
  %60 = icmp sle i32 %59, 122
  br i1 %60, label %61, label %70

61:                                               ; preds = %54
  %62 = load i32, i32* %7, align 4
  %63 = sext i32 %62 to i64
  %64 = getelementptr inbounds [100 x i8], [100 x i8]* %4, i64 0, i64 %63
  %65 = load i8, i8* %64, align 1
  %66 = sext i8 %65 to i32
  %67 = sub nsw i32 %66, 97
  %68 = add nsw i32 %67, 10
  %69 = sext i32 %68 to i64
  store i64 %69, i64* %6, align 8
  br label %78

70:                                               ; preds = %54, %47
  %71 = load i32, i32* %7, align 4
  %72 = sext i32 %71 to i64
  %73 = getelementptr inbounds [100 x i8], [100 x i8]* %4, i64 0, i64 %72
  %74 = load i8, i8* %73, align 1
  %75 = sext i8 %74 to i32
  %76 = sub nsw i32 %75, 48
  %77 = sext i32 %76 to i64
  store i64 %77, i64* %6, align 8
  br label %78

78:                                               ; preds = %70, %61
  br label %79

79:                                               ; preds = %78, %38
  store i32 1, i32* %8, align 4
  br label %80

80:                                               ; preds = %92, %79
  %81 = load i32, i32* %8, align 4
  %82 = load i32, i32* %10, align 4
  %83 = load i32, i32* %7, align 4
  %84 = sub nsw i32 %82, %83
  %85 = sub nsw i32 %84, 1
  %86 = icmp sle i32 %81, %85
  br i1 %86, label %87, label %95

87:                                               ; preds = %80
  %88 = load i32, i32* %2, align 4
  %89 = sext i32 %88 to i64
  %90 = load i64, i64* %6, align 8
  %91 = mul nsw i64 %89, %90
  store i64 %91, i64* %6, align 8
  br label %92

92:                                               ; preds = %87
  %93 = load i32, i32* %8, align 4
  %94 = add nsw i32 %93, 1
  store i32 %94, i32* %8, align 4
  br label %80

95:                                               ; preds = %80
  %96 = load i64, i64* %6, align 8
  %97 = load i64, i64* %5, align 8
  %98 = add nsw i64 %97, %96
  store i64 %98, i64* %5, align 8
  br label %99

99:                                               ; preds = %95
  %100 = load i32, i32* %7, align 4
  %101 = add nsw i32 %100, 1
  store i32 %101, i32* %7, align 4
  br label %20

102:                                              ; preds = %20
  %103 = bitcast [100 x i32]* %11 to i8*
  call void @llvm.memset.p0i8.i64(i8* align 16 %103, i8 0, i64 400, i1 false)
  %104 = bitcast i8* %103 to <{ i32, [99 x i32] }>*
  %105 = getelementptr inbounds <{ i32, [99 x i32] }>, <{ i32, [99 x i32] }>* %104, i32 0, i32 0
  store i32 -1, i32* %105, align 16
  store i32 0, i32* %8, align 4
  br label %106

106:                                              ; preds = %123, %102
  %107 = load i64, i64* %5, align 8
  %108 = load i32, i32* %3, align 4
  %109 = sext i32 %108 to i64
  %110 = srem i64 %107, %109
  %111 = trunc i64 %110 to i32
  %112 = load i32, i32* %8, align 4
  %113 = sext i32 %112 to i64
  %114 = getelementptr inbounds [100 x i32], [100 x i32]* %11, i64 0, i64 %113
  store i32 %111, i32* %114, align 4
  %115 = load i64, i64* %5, align 8
  %116 = load i32, i32* %3, align 4
  %117 = sext i32 %116 to i64
  %118 = sdiv i64 %115, %117
  store i64 %118, i64* %5, align 8
  %119 = load i64, i64* %5, align 8
  %120 = icmp eq i64 %119, 0
  br i1 %120, label %121, label %122

121:                                              ; preds = %106
  br label %126

122:                                              ; preds = %106
  br label %123

123:                                              ; preds = %122
  %124 = load i32, i32* %8, align 4
  %125 = add nsw i32 %124, 1
  store i32 %125, i32* %8, align 4
  br label %106

126:                                              ; preds = %121
  %127 = load i32, i32* %8, align 4
  store i32 %127, i32* %9, align 4
  br label %128

128:                                              ; preds = %155, %126
  %129 = load i32, i32* %9, align 4
  %130 = icmp sge i32 %129, 0
  br i1 %130, label %131, label %158

131:                                              ; preds = %128
  %132 = load i32, i32* %9, align 4
  %133 = sext i32 %132 to i64
  %134 = getelementptr inbounds [100 x i32], [100 x i32]* %11, i64 0, i64 %133
  %135 = load i32, i32* %134, align 4
  %136 = icmp sge i32 %135, 10
  br i1 %136, label %137, label %148

137:                                              ; preds = %131
  %138 = load i32, i32* %9, align 4
  %139 = sext i32 %138 to i64
  %140 = getelementptr inbounds [100 x i32], [100 x i32]* %11, i64 0, i64 %139
  %141 = load i32, i32* %140, align 4
  %142 = add nsw i32 65, %141
  %143 = sub nsw i32 %142, 10
  %144 = trunc i32 %143 to i8
  store i8 %144, i8* %12, align 1
  %145 = load i8, i8* %12, align 1
  %146 = sext i8 %145 to i32
  %147 = call i32 (i8*, ...) @printf(i8* getelementptr inbounds ([3 x i8], [3 x i8]* @.str.2, i64 0, i64 0), i32 %146)
  br label %154

148:                                              ; preds = %131
  %149 = load i32, i32* %9, align 4
  %150 = sext i32 %149 to i64
  %151 = getelementptr inbounds [100 x i32], [100 x i32]* %11, i64 0, i64 %150
  %152 = load i32, i32* %151, align 4
  %153 = call i32 (i8*, ...) @printf(i8* getelementptr inbounds ([3 x i8], [3 x i8]* @.str, i64 0, i64 0), i32 %152)
  br label %154

154:                                              ; preds = %148, %137
  br label %155

155:                                              ; preds = %154
  %156 = load i32, i32* %9, align 4
  %157 = add nsw i32 %156, -1
  store i32 %157, i32* %9, align 4
  br label %128

158:                                              ; preds = %128
  %159 = load i32, i32* %1, align 4
  ret i32 %159
}

declare dso_local i32 @__isoc99_scanf(i8*, ...) #1

; Function Attrs: nounwind readonly
declare dso_local i64 @strlen(i8*) #2

; Function Attrs: argmemonly nounwind willreturn
declare void @llvm.memset.p0i8.i64(i8* nocapture writeonly, i8, i64, i1 immarg) #3

declare dso_local i32 @printf(i8*, ...) #1


!llvm.module.flags = !{!0}
!llvm.ident = !{!1}

!0 = !{i32 1, !"wchar_size", i32 4}
!1 = !{!"clang version 10.0.0-4ubuntu1 "}
